; Function Attrs: mustprogress uwtable
define hidden void @_ZN2cv5gimpl11IslandActorC2ERKSt6vectorINS0_6RcDescESaIS3_EES7_St10shared_ptrINS0_17GIslandExecutableEERNS0_10GraphStateE(ptr noundef nonnull align 8 dereferenceable(160) initializes((0, 56)) %0, ptr noundef nonnull align 8 dereferenceable(24) %1, ptr noundef nonnull align 8 dereferenceable(24) %2, ptr noundef readonly captures(none) %3, ptr noundef nonnull align 8 dereferenceable(936) %4) unnamed_addr #3 align 2 personality ptr @__gxx_personality_v0 {
  %6 = load ptr, ptr %3, align 8, !tbaa !175
  store ptr %6, ptr %0, align 8, !tbaa !175
  %7 = getelementptr inbounds nuw i8, ptr %0, i64 8
  %8 = getelementptr inbounds nuw i8, ptr %3, i64 8
  %9 = load ptr, ptr %8, align 8, !tbaa !179
  store ptr %9, ptr %7, align 8, !tbaa !179
  %.not.i.i.i = icmp eq ptr %9, null
  br i1 %.not.i.i.i, label %_ZNSt10shared_ptrIN2cv5gimpl17GIslandExecutableEEC2ERKS3_.exit, label %10

10:                                               ; preds = %5
  %11 = getelementptr inbounds nuw i8, ptr %9, i64 8
  %12 = load i8, ptr @__libc_single_threaded, align 1, !tbaa !112
  %.not.i.i.i.i = icmp eq i8 %12, 0
  br i1 %.not.i.i.i.i, label %16, label %13

13:                                               ; preds = %10
  %14 = load i32, ptr %11, align 4, !tbaa !66
  %15 = add nsw i32 %14, 1
  store i32 %15, ptr %11, align 4, !tbaa !66
  br label %_ZNSt10shared_ptrIN2cv5gimpl17GIslandExecutableEEC2ERKS3_.exit

16:                                               ; preds = %10
  %17 = atomicrmw volatile add ptr %11, i32 1 acq_rel, align 4
  br label %_ZNSt10shared_ptrIN2cv5gimpl17GIslandExecutableEEC2ERKS3_.exit

_ZNSt10shared_ptrIN2cv5gimpl17GIslandExecutableEEC2ERKS3_.exit: ; preds = %5, %13, %16
  %18 = getelementptr inbounds nuw i8, ptr %0, i64 16
  %19 = getelementptr inbounds nuw i8, ptr %0, i64 24
  tail call void @llvm.memset.p0.i64(ptr noundef nonnull align 8 dereferenceable(24) %19, i8 0, i64 24, i1 false)
  store ptr getelementptr inbounds nuw inrange(-16, 32) (i8, ptr @_ZTVN2cv5gimpl17GThreadedExecutor5InputE, i64 16), ptr %18, align 8, !tbaa !33
  %20 = getelementptr inbounds nuw i8, ptr %0, i64 48
  store ptr %4, ptr %20, align 8, !tbaa !50
  %21 = invoke noundef nonnull align 8 dereferenceable(24) ptr @_ZNSt6vectorIN2cv5gimpl6RcDescESaIS2_EEaSERKS4_(ptr noundef nonnull align 8 dereferenceable(24) %19, ptr noundef nonnull align 8 dereferenceable(24) %1)
          to label %_ZN2cv5gimpl17GThreadedExecutor5InputC2ERNS0_10GraphStateERKSt6vectorINS0_6RcDescESaIS6_EE.exit unwind label %22

22:                                               ; preds = %_ZNSt10shared_ptrIN2cv5gimpl17GIslandExecutableEEC2ERKS3_.exit
  %23 = landingpad { ptr, i32 }
          cleanup
  br label %.body

_ZN2cv5gimpl17GThreadedExecutor5InputC2ERNS0_10GraphStateERKSt6vectorINS0_6RcDescESaIS6_EE.exit: ; preds = %_ZNSt10shared_ptrIN2cv5gimpl17GIslandExecutableEEC2ERKS3_.exit
  %24 = getelementptr inbounds nuw i8, ptr %0, i64 56
  %25 = getelementptr inbounds nuw i8, ptr %0, i64 64
  tail call void @llvm.memset.p0.i64(ptr noundef nonnull align 8 dereferenceable(24) %25, i8 0, i64 24, i1 false)
  store ptr getelementptr inbounds nuw inrange(-16, 56) (i8, ptr @_ZTVN2cv5gimpl17GThreadedExecutor6OutputE, i64 16), ptr %24, align 8, !tbaa !33
  %26 = getelementptr inbounds nuw i8, ptr %0, i64 88
  store ptr %4, ptr %26, align 8, !tbaa !50
  %27 = getelementptr inbounds nuw i8, ptr %0, i64 96
  %28 = getelementptr inbounds nuw i8, ptr %0, i64 144
  store ptr %28, ptr %27, align 8, !tbaa !90
  %29 = getelementptr inbounds nuw i8, ptr %0, i64 104
  store i64 1, ptr %29, align 8, !tbaa !89
  %30 = getelementptr inbounds nuw i8, ptr %0, i64 112
  %31 = getelementptr inbounds nuw i8, ptr %0, i64 128
  tail call void @llvm.memset.p0.i64(ptr noundef nonnull align 8 dereferenceable(16) %30, i8 0, i64 16, i1 false)
  store float 1.000000e+00, ptr %31, align 8, !tbaa !98
  %32 = getelementptr inbounds nuw i8, ptr %0, i64 136
  %33 = getelementptr inbounds nuw i8, ptr %0, i64 152
  tail call void @llvm.memset.p0.i64(ptr noundef nonnull align 8 dereferenceable(24) %32, i8 0, i64 24, i1 false)
  %34 = invoke noundef nonnull align 8 dereferenceable(24) ptr @_ZNSt6vectorIN2cv5gimpl6RcDescESaIS2_EEaSERKS4_(ptr noundef nonnull align 8 dereferenceable(24) %25, ptr noundef nonnull align 8 dereferenceable(24) %2)
          to label %_ZN2cv5gimpl17GThreadedExecutor6OutputC2ERNS0_10GraphStateERKSt6vectorINS0_6RcDescESaIS6_EE.exit unwind label %35

35:                                               ; preds = %_ZN2cv5gimpl17GThreadedExecutor5InputC2ERNS0_10GraphStateERKSt6vectorINS0_6RcDescESaIS6_EE.exit
  %36 = landingpad { ptr, i32 }
          cleanup
  %37 = load ptr, ptr %33, align 8, !tbaa !95
  %.not.i.i = icmp eq ptr %37, null
  br i1 %.not.i.i, label %_ZNSt15__exception_ptr13exception_ptrD2Ev.exit.i, label %38

38:                                               ; preds = %35
  tail call void @_ZNSt15__exception_ptr13exception_ptr10_M_releaseEv(ptr noundef nonnull align 8 dereferenceable(8) %33) #26
  br label %_ZNSt15__exception_ptr13exception_ptrD2Ev.exit.i

_ZNSt15__exception_ptr13exception_ptrD2Ev.exit.i: ; preds = %38, %35
  tail call void @_ZNSt13unordered_mapIPKviSt4hashIS1_ESt8equal_toIS1_ESaISt4pairIKS1_iEEED2Ev(ptr noundef nonnull align 8 dereferenceable(56) %27) #26
  tail call void @_ZN2cv5gimpl17GIslandExecutable7IOutputD2Ev(ptr noundef nonnull align 8 dereferenceable(104) %24) #26
  br label %.body

_ZN2cv5gimpl17GThreadedExecutor6OutputC2ERNS0_10GraphStateERKSt6vectorINS0_6RcDescESaIS6_EE.exit: ; preds = %_ZN2cv5gimpl17GThreadedExecutor5InputC2ERNS0_10GraphStateERKSt6vectorINS0_6RcDescESaIS6_EE.exit
  ret void

.body:                                            ; preds = %22, %_ZNSt15__exception_ptr13exception_ptrD2Ev.exit.i
  %.pn = phi { ptr, i32 } [ %36, %_ZNSt15__exception_ptr13exception_ptrD2Ev.exit.i ], [ %23, %22 ]
  tail call void @_ZN2cv5gimpl17GIslandExecutable6IInputD2Ev(ptr noundef nonnull align 8 dereferenceable(40) %18) #26
  tail call void @_ZNSt12__shared_ptrIN2cv5gimpl17GIslandExecutableELN9__gnu_cxx12_Lock_policyE2EED2Ev(ptr noundef nonnull align 8 dereferenceable(16) %0) #26
  resume { ptr, i32 } %.pn
}